target datalayout = "e-m:e-p270:32:32-p271:32:32-p272:64:64-i64:64-i128:128-f80:128-n8:16:32:64-S128"
target triple = "x86_64-pc-linux-gnu"

%struct.vtx_data = type { i32, ptr }

@constructSierpinski.last_used_node_name = internal global i32 3, align 4

; Function Attrs: nounwind uwtable
define internal void @constructSierpinski(i32 noundef %0, i32 noundef %1, i32 noundef %2, i32 noundef %3, ptr noundef %4) #0 {
  %6 = alloca i32, align 4
  %7 = alloca i32, align 4
  %8 = alloca i32, align 4
  %9 = alloca i32, align 4
  %10 = alloca ptr, align 8
  %11 = alloca i32, align 4
  %12 = alloca i32, align 4
  %13 = alloca i32, align 4
  %14 = alloca i32, align 4
  store i32 %0, ptr %6, align 4, !tbaa !4
  store i32 %1, ptr %7, align 4, !tbaa !4
  store i32 %2, ptr %8, align 4, !tbaa !4
  store i32 %3, ptr %9, align 4, !tbaa !4
  store ptr %4, ptr %10, align 8, !tbaa !8
  %15 = load i32, ptr %9, align 4, !tbaa !4
  %16 = icmp ugt i32 %15, 0
  br i1 %16, label %17, label %42

17:                                               ; preds = %5
  call void @llvm.lifetime.start.p0(i64 4, ptr %11) #11
  %18 = load i32, ptr @constructSierpinski.last_used_node_name, align 4, !tbaa !4
  %19 = add i32 %18, 1
  store i32 %19, ptr @constructSierpinski.last_used_node_name, align 4, !tbaa !4
  store i32 %19, ptr %11, align 4, !tbaa !4
  call void @llvm.lifetime.start.p0(i64 4, ptr %12) #11
  %20 = load i32, ptr @constructSierpinski.last_used_node_name, align 4, !tbaa !4
  %21 = add i32 %20, 1
  store i32 %21, ptr @constructSierpinski.last_used_node_name, align 4, !tbaa !4
  store i32 %21, ptr %12, align 4, !tbaa !4
  call void @llvm.lifetime.start.p0(i64 4, ptr %13) #11
  %22 = load i32, ptr @constructSierpinski.last_used_node_name, align 4, !tbaa !4
  %23 = add i32 %22, 1
  store i32 %23, ptr @constructSierpinski.last_used_node_name, align 4, !tbaa !4
  store i32 %23, ptr %13, align 4, !tbaa !4
  %24 = load i32, ptr %6, align 4, !tbaa !4
  %25 = load i32, ptr %11, align 4, !tbaa !4
  %26 = load i32, ptr %12, align 4, !tbaa !4
  %27 = load i32, ptr %9, align 4, !tbaa !4
  %28 = sub i32 %27, 1
  %29 = load ptr, ptr %10, align 8, !tbaa !8
  call void @constructSierpinski(i32 noundef %24, i32 noundef %25, i32 noundef %26, i32 noundef %28, ptr noundef %29)
  %30 = load i32, ptr %7, align 4, !tbaa !4
  %31 = load i32, ptr %12, align 4, !tbaa !4
  %32 = load i32, ptr %13, align 4, !tbaa !4
  %33 = load i32, ptr %9, align 4, !tbaa !4
  %34 = sub i32 %33, 1
  %35 = load ptr, ptr %10, align 8, !tbaa !8
  call void @constructSierpinski(i32 noundef %30, i32 noundef %31, i32 noundef %32, i32 noundef %34, ptr noundef %35)
  %36 = load i32, ptr %8, align 4, !tbaa !4
  %37 = load i32, ptr %11, align 4, !tbaa !4
  %38 = load i32, ptr %13, align 4, !tbaa !4
  %39 = load i32, ptr %9, align 4, !tbaa !4
  %40 = sub i32 %39, 1
  %41 = load ptr, ptr %10, align 8, !tbaa !8
  call void @constructSierpinski(i32 noundef %36, i32 noundef %37, i32 noundef %38, i32 noundef %40, ptr noundef %41)
  call void @llvm.lifetime.end.p0(i64 4, ptr %13) #11
  call void @llvm.lifetime.end.p0(i64 4, ptr %12) #11
  call void @llvm.lifetime.end.p0(i64 4, ptr %11) #11
  br label %145

42:                                               ; preds = %5
  call void @llvm.lifetime.start.p0(i64 4, ptr %14) #11
  %43 = load ptr, ptr %10, align 8, !tbaa !8
  %44 = load i32, ptr %6, align 4, !tbaa !4
  %45 = zext i32 %44 to i64
  %46 = getelementptr inbounds nuw %struct.vtx_data, ptr %43, i64 %45
  %47 = getelementptr inbounds nuw %struct.vtx_data, ptr %46, i32 0, i32 0
  %48 = load i32, ptr %47, align 8, !tbaa !42
  store i32 %48, ptr %14, align 4, !tbaa !4
  %49 = load i32, ptr %7, align 4, !tbaa !4
  %50 = load ptr, ptr %10, align 8, !tbaa !8
  %51 = load i32, ptr %6, align 4, !tbaa !4
  %52 = zext i32 %51 to i64
  %53 = getelementptr inbounds nuw %struct.vtx_data, ptr %50, i64 %52
  %54 = getelementptr inbounds nuw %struct.vtx_data, ptr %53, i32 0, i32 1
  %55 = load ptr, ptr %54, align 8, !tbaa !40
  %56 = load i32, ptr %14, align 4, !tbaa !4
  %57 = add i32 %56, 1
  store i32 %57, ptr %14, align 4, !tbaa !4
  %58 = zext i32 %56 to i64
  %59 = getelementptr inbounds nuw i32, ptr %55, i64 %58
  store i32 %49, ptr %59, align 4, !tbaa !4
  %60 = load i32, ptr %8, align 4, !tbaa !4
  %61 = load ptr, ptr %10, align 8, !tbaa !8
  %62 = load i32, ptr %6, align 4, !tbaa !4
  %63 = zext i32 %62 to i64
  %64 = getelementptr inbounds nuw %struct.vtx_data, ptr %61, i64 %63
  %65 = getelementptr inbounds nuw %struct.vtx_data, ptr %64, i32 0, i32 1
  %66 = load ptr, ptr %65, align 8, !tbaa !40
  %67 = load i32, ptr %14, align 4, !tbaa !4
  %68 = add i32 %67, 1
  store i32 %68, ptr %14, align 4, !tbaa !4
  %69 = zext i32 %67 to i64
  %70 = getelementptr inbounds nuw i32, ptr %66, i64 %69
  store i32 %60, ptr %70, align 4, !tbaa !4
  %71 = load i32, ptr %14, align 4, !tbaa !4
  %72 = load ptr, ptr %10, align 8, !tbaa !8
  %73 = load i32, ptr %6, align 4, !tbaa !4
  %74 = zext i32 %73 to i64
  %75 = getelementptr inbounds nuw %struct.vtx_data, ptr %72, i64 %74
  %76 = getelementptr inbounds nuw %struct.vtx_data, ptr %75, i32 0, i32 0
  store i32 %71, ptr %76, align 8, !tbaa !42
  %77 = load ptr, ptr %10, align 8, !tbaa !8
  %78 = load i32, ptr %7, align 4, !tbaa !4
  %79 = zext i32 %78 to i64
  %80 = getelementptr inbounds nuw %struct.vtx_data, ptr %77, i64 %79
  %81 = getelementptr inbounds nuw %struct.vtx_data, ptr %80, i32 0, i32 0
  %82 = load i32, ptr %81, align 8, !tbaa !42
  store i32 %82, ptr %14, align 4, !tbaa !4
  %83 = load i32, ptr %6, align 4, !tbaa !4
  %84 = load ptr, ptr %10, align 8, !tbaa !8
  %85 = load i32, ptr %7, align 4, !tbaa !4
  %86 = zext i32 %85 to i64
  %87 = getelementptr inbounds nuw %struct.vtx_data, ptr %84, i64 %86
  %88 = getelementptr inbounds nuw %struct.vtx_data, ptr %87, i32 0, i32 1
  %89 = load ptr, ptr %88, align 8, !tbaa !40
  %90 = load i32, ptr %14, align 4, !tbaa !4
  %91 = add i32 %90, 1
  store i32 %91, ptr %14, align 4, !tbaa !4
  %92 = zext i32 %90 to i64
  %93 = getelementptr inbounds nuw i32, ptr %89, i64 %92
  store i32 %83, ptr %93, align 4, !tbaa !4
  %94 = load i32, ptr %8, align 4, !tbaa !4
  %95 = load ptr, ptr %10, align 8, !tbaa !8
  %96 = load i32, ptr %7, align 4, !tbaa !4
  %97 = zext i32 %96 to i64
  %98 = getelementptr inbounds nuw %struct.vtx_data, ptr %95, i64 %97
  %99 = getelementptr inbounds nuw %struct.vtx_data, ptr %98, i32 0, i32 1
  %100 = load ptr, ptr %99, align 8, !tbaa !40
  %101 = load i32, ptr %14, align 4, !tbaa !4
  %102 = add i32 %101, 1
  store i32 %102, ptr %14, align 4, !tbaa !4
  %103 = zext i32 %101 to i64
  %104 = getelementptr inbounds nuw i32, ptr %100, i64 %103
  store i32 %94, ptr %104, align 4, !tbaa !4
  %105 = load i32, ptr %14, align 4, !tbaa !4
  %106 = load ptr, ptr %10, align 8, !tbaa !8
  %107 = load i32, ptr %7, align 4, !tbaa !4
  %108 = zext i32 %107 to i64
  %109 = getelementptr inbounds nuw %struct.vtx_data, ptr %106, i64 %108
  %110 = getelementptr inbounds nuw %struct.vtx_data, ptr %109, i32 0, i32 0
  store i32 %105, ptr %110, align 8, !tbaa !42
  %111 = load ptr, ptr %10, align 8, !tbaa !8
  %112 = load i32, ptr %8, align 4, !tbaa !4
  %113 = zext i32 %112 to i64
  %114 = getelementptr inbounds nuw %struct.vtx_data, ptr %111, i64 %113
  %115 = getelementptr inbounds nuw %struct.vtx_data, ptr %114, i32 0, i32 0
  %116 = load i32, ptr %115, align 8, !tbaa !42
  store i32 %116, ptr %14, align 4, !tbaa !4
  %117 = load i32, ptr %6, align 4, !tbaa !4
  %118 = load ptr, ptr %10, align 8, !tbaa !8
  %119 = load i32, ptr %8, align 4, !tbaa !4
  %120 = zext i32 %119 to i64
  %121 = getelementptr inbounds nuw %struct.vtx_data, ptr %118, i64 %120
  %122 = getelementptr inbounds nuw %struct.vtx_data, ptr %121, i32 0, i32 1
  %123 = load ptr, ptr %122, align 8, !tbaa !40
  %124 = load i32, ptr %14, align 4, !tbaa !4
  %125 = add i32 %124, 1
  store i32 %125, ptr %14, align 4, !tbaa !4
  %126 = zext i32 %124 to i64
  %127 = getelementptr inbounds nuw i32, ptr %123, i64 %126
  store i32 %117, ptr %127, align 4, !tbaa !4
  %128 = load i32, ptr %7, align 4, !tbaa !4
  %129 = load ptr, ptr %10, align 8, !tbaa !8
  %130 = load i32, ptr %8, align 4, !tbaa !4
  %131 = zext i32 %130 to i64
  %132 = getelementptr inbounds nuw %struct.vtx_data, ptr %129, i64 %131
  %133 = getelementptr inbounds nuw %struct.vtx_data, ptr %132, i32 0, i32 1
  %134 = load ptr, ptr %133, align 8, !tbaa !40
  %135 = load i32, ptr %14, align 4, !tbaa !4
  %136 = add i32 %135, 1
  store i32 %136, ptr %14, align 4, !tbaa !4
  %137 = zext i32 %135 to i64
  %138 = getelementptr inbounds nuw i32, ptr %134, i64 %137
  store i32 %128, ptr %138, align 4, !tbaa !4
  %139 = load i32, ptr %14, align 4, !tbaa !4
  %140 = load ptr, ptr %10, align 8, !tbaa !8
  %141 = load i32, ptr %8, align 4, !tbaa !4
  %142 = zext i32 %141 to i64
  %143 = getelementptr inbounds nuw %struct.vtx_data, ptr %140, i64 %142
  %144 = getelementptr inbounds nuw %struct.vtx_data, ptr %143, i32 0, i32 0
  store i32 %139, ptr %144, align 8, !tbaa !42
  call void @llvm.lifetime.end.p0(i64 4, ptr %14) #11
  br label %145

145:                                              ; preds = %42, %17
  ret void
}