; Function Attrs: nofree nosync nounwind memory(readwrite, inaccessiblemem: none) uwtable
define internal fastcc void @constructSierpinski(i32 noundef %0, i32 noundef %1, i32 noundef %2, i32 noundef %3, ptr noundef %4) unnamed_addr #3 {
  %.not58 = icmp eq i32 %3, 0
  br i1 %.not58, label %tailrecurse._crit_edge, label %tailrecurse

tailrecurse:                                      ; preds = %5, %tailrecurse
  %.tr5662 = phi i32 [ %10, %tailrecurse ], [ %3, %5 ]
  %.tr5561 = phi i32 [ %9, %tailrecurse ], [ %2, %5 ]
  %.tr5460 = phi i32 [ %7, %tailrecurse ], [ %1, %5 ]
  %.tr59 = phi i32 [ %.tr5561, %tailrecurse ], [ %0, %5 ]
  %6 = load i32, ptr @constructSierpinski.last_used_node_name, align 4, !tbaa !30
  %7 = add i32 %6, 1
  %8 = add i32 %6, 2
  %9 = add i32 %6, 3
  store i32 %9, ptr @constructSierpinski.last_used_node_name, align 4, !tbaa !30
  %10 = add i32 %.tr5662, -1
  tail call fastcc void @constructSierpinski(i32 noundef %.tr59, i32 noundef %7, i32 noundef %8, i32 noundef %10, ptr noundef %4)
  tail call fastcc void @constructSierpinski(i32 noundef %.tr5460, i32 noundef %8, i32 noundef %9, i32 noundef %10, ptr noundef %4)
  %.not = icmp eq i32 %10, 0
  br i1 %.not, label %tailrecurse._crit_edge, label %tailrecurse

tailrecurse._crit_edge:                           ; preds = %tailrecurse, %5
  %.tr.lcssa = phi i32 [ %0, %5 ], [ %.tr5561, %tailrecurse ]
  %.tr54.lcssa = phi i32 [ %1, %5 ], [ %7, %tailrecurse ]
  %.tr55.lcssa = phi i32 [ %2, %5 ], [ %9, %tailrecurse ]
  %11 = zext i32 %.tr.lcssa to i64
  %12 = getelementptr inbounds nuw %struct.vtx_data, ptr %4, i64 %11
  %13 = load i32, ptr %12, align 8, !tbaa !38
  %14 = getelementptr inbounds nuw i8, ptr %12, i64 8
  %15 = load ptr, ptr %14, align 8, !tbaa !35
  %16 = add i32 %13, 1
  %17 = zext i32 %13 to i64
  %18 = getelementptr inbounds nuw i32, ptr %15, i64 %17
  store i32 %.tr54.lcssa, ptr %18, align 4, !tbaa !30
  %19 = add i32 %13, 2
  %20 = zext i32 %16 to i64
  %21 = getelementptr inbounds nuw i32, ptr %15, i64 %20
  store i32 %.tr55.lcssa, ptr %21, align 4, !tbaa !30
  store i32 %19, ptr %12, align 8, !tbaa !38
  %22 = zext i32 %.tr54.lcssa to i64
  %23 = getelementptr inbounds nuw %struct.vtx_data, ptr %4, i64 %22
  %24 = load i32, ptr %23, align 8, !tbaa !38
  %25 = getelementptr inbounds nuw i8, ptr %23, i64 8
  %26 = load ptr, ptr %25, align 8, !tbaa !35
  %27 = add i32 %24, 1
  %28 = zext i32 %24 to i64
  %29 = getelementptr inbounds nuw i32, ptr %26, i64 %28
  store i32 %.tr.lcssa, ptr %29, align 4, !tbaa !30
  %30 = add i32 %24, 2
  %31 = zext i32 %27 to i64
  %32 = getelementptr inbounds nuw i32, ptr %26, i64 %31
  store i32 %.tr55.lcssa, ptr %32, align 4, !tbaa !30
  store i32 %30, ptr %23, align 8, !tbaa !38
  %33 = zext i32 %.tr55.lcssa to i64
  %34 = getelementptr inbounds nuw %struct.vtx_data, ptr %4, i64 %33
  %35 = load i32, ptr %34, align 8, !tbaa !38
  %36 = getelementptr inbounds nuw i8, ptr %34, i64 8
  %37 = load ptr, ptr %36, align 8, !tbaa !35
  %38 = add i32 %35, 1
  %39 = zext i32 %35 to i64
  %40 = getelementptr inbounds nuw i32, ptr %37, i64 %39
  store i32 %.tr.lcssa, ptr %40, align 4, !tbaa !30
  %41 = add i32 %35, 2
  %42 = zext i32 %38 to i64
  %43 = getelementptr inbounds nuw i32, ptr %37, i64 %42
  store i32 %.tr54.lcssa, ptr %43, align 4, !tbaa !30
  store i32 %41, ptr %34, align 8, !tbaa !38
  ret void
}